; Function Attrs: nounwind uwtable
define ptr @l_Lean_Elab_Tactic_evalSimpTrace___lambda__1___boxed(ptr noundef %0, ptr noundef %1, ptr noundef %2, ptr noundef %3, ptr noundef %4, ptr noundef %5, ptr noundef %6, ptr noundef %7, ptr noundef %8, ptr noundef %9, ptr noundef %10, ptr noundef %11, ptr noundef %12) #0 {
  %14 = ptrtoint ptr %0 to i64
  %15 = and i64 %14, 1
  %.not.i.i = icmp eq i64 %15, 0
  br i1 %.not.i.i, label %19, label %16

16:                                               ; preds = %13
  %17 = lshr i64 %14, 1
  %18 = trunc i64 %17 to i32
  br label %lean_obj_tag.exit.i

19:                                               ; preds = %13
  %20 = getelementptr i8, ptr %0, i64 4
  %.val.i.i = load i32, ptr %20, align 4
  %21 = lshr i32 %.val.i.i, 24
  br label %lean_obj_tag.exit.i

lean_obj_tag.exit.i:                              ; preds = %19, %16
  %.0.i.i = phi i32 [ %18, %16 ], [ %21, %19 ]
  %22 = icmp eq i32 %.0.i.i, 0
  br i1 %22, label %23, label %25

23:                                               ; preds = %lean_obj_tag.exit.i
  %24 = load ptr, ptr @l_Lean_Elab_Tactic_evalSimpTrace___lambda__1___closed__2, align 8, !tbaa !9
  br label %l_Lean_Elab_Tactic_evalSimpTrace___lambda__1.exit

25:                                               ; preds = %lean_obj_tag.exit.i
  %26 = getelementptr inbounds nuw i8, ptr %0, i64 8
  %27 = load ptr, ptr %26, align 8, !tbaa !9
  %28 = tail call ptr @l_Lean_Elab_Tactic_expandLocation(ptr noundef %27) #5
  br label %l_Lean_Elab_Tactic_evalSimpTrace___lambda__1.exit

l_Lean_Elab_Tactic_evalSimpTrace___lambda__1.exit: ; preds = %23, %25
  %.sink.i = phi ptr [ %28, %25 ], [ %24, %23 ]
  %29 = tail call ptr @l_Lean_Elab_Tactic_simpLocation(ptr noundef %1, ptr noundef %2, ptr noundef %3, ptr noundef %.sink.i, ptr noundef %4, ptr noundef %5, ptr noundef %6, ptr noundef %7, ptr noundef %8, ptr noundef %9, ptr noundef %10, ptr noundef %11, ptr noundef %12) #5
  br i1 %.not.i.i, label %30, label %lean_dec.exit

30:                                               ; preds = %l_Lean_Elab_Tactic_evalSimpTrace___lambda__1.exit
  %31 = load i32, ptr %0, align 4, !tbaa !4
  %32 = icmp sgt i32 %31, 1
  br i1 %32, label %33, label %35, !prof !11

33:                                               ; preds = %30
  %34 = add nsw i32 %31, -1
  store i32 %34, ptr %0, align 4, !tbaa !4
  br label %lean_dec.exit

35:                                               ; preds = %30
  %.not.i = icmp eq i32 %31, 0
  br i1 %.not.i, label %lean_dec.exit, label %36

36:                                               ; preds = %35
  tail call void @lean_dec_ref_cold(ptr noundef nonnull %0) #5
  br label %lean_dec.exit

lean_dec.exit:                                    ; preds = %36, %35, %33, %l_Lean_Elab_Tactic_evalSimpTrace___lambda__1.exit
  ret ptr %29
}